Microchip MPLAB XC8 Compiler V1.35 ()

Linker command line:

--edf=C:\Program Files (x86)\Microchip\xc8\v1.35\dat\en_msgs.txt -cs \
  -h+dist/default/production\DonPimpolho2.1V.X.production.sym \
  --cmf=dist/default/production\DonPimpolho2.1V.X.production.cmf -z \
  -Q18F4550 -oC:\Users\Yago\AppData\Local\Temp\sh78.2 \
  -Mdist/default/production/DonPimpolho2.1V.X.production.map -E1 -ver=XC8 \
  -ASTACK=0FEh-07ffh -pstack=STACK -ACODE=00h-07FFFh -ACONST=00h-07FFFh \
  -ASMALLCONST=0800h-08FFhx120 -AMEDIUMCONST=0800h-07FFFh -ACOMRAM=01h-05Fh \
  -AABS1=00h-07FFh -ABIGRAM=01h-07FFh -ARAM=060h-0FFh,0100h-01FFhx7 \
  -ABANK0=060h-0FFh -ABANK1=0100h-01FFh -ABANK2=0200h-02FFh \
  -ABANK3=0300h-03FFh -ABANK4=0400h-04FFh -ABANK5=0500h-05FFh \
  -ABANK6=0600h-06FFh -ABANK7=0700h-07FFh -ASFR=0F60h-0FFFh \
  -preset_vec=00h,intcode=08h,intcodelo,powerup,init,end_init \
  -pramtop=0800h -psmallconst=SMALLCONST -pmediumconst=MEDIUMCONST \
  -pconst=CONST -AFARRAM=00h-00h -ACONFIG=0300000h-030000Dh -pconfig=CONFIG \
  -AIDLOC=0200000h-0200007h -pidloc=IDLOC -AEEDATA=0F00000h-0F000FFh \
  -peeprom_data=EEDATA \
  -prdata=COMRAM,nvrram=COMRAM,nvbit=COMRAM,rbss=COMRAM,rbit=COMRAM \
  -pfarbss=FARRAM,fardata=FARRAM,nvFARRAM=FARRAM \
  -pintsave_regs=BIGRAM,bigbss=BIGRAM,bigdata=BIGRAM -pbss=RAM \
  -pidata=CODE,irdata=CODE,ibigdata=CODE,ifardata=CODE -prparam=COMRAM \
  C:\Users\Yago\AppData\Local\Temp\sh78.obj \
  dist/default/production\DonPimpolho2.1V.X.production.obj 

Object code version is 3.11

Machine type is 18F4550

Call graph: (short form)




                Name                               Link     Load   Length Selector   Space Scale
C:\Users\Yago\AppData\Local\Temp\sh78.obj
                end_init                             16       16        4        4       0
                reset_vec                             0        0        4        0       0
                idloc                            200000   200000        8   200000       0
                config                           300000   300000        E   300000       0
dist/default/production\DonPimpolho2.1V.X.production.obj
                intcode                               8        8        E        4       0
                temp                                 44       44        1        1       1
                text23                              9D6      9D6       88        4       0
                text22                              B5C      B5C       60        4       0
                intcode_body                        AE2      AE2       7A        4       0
                text20                              DDC      DDC       2A      6EE       0
                text19                              D6E      D6E       40        4       0
                text18                              E90      E90        8      6EE       0
                text17                              E2C      E2C       26      6EE       0
                text16                              D2E      D2E       40        4       0
                text15                              E88      E88        8      6EE       0
                text14                              5C4      5C4      148        4       0
                text13                              BBC      BBC       56        4       0
                text12                              CEC      CEC       42        4       0
                text11                              C64      C64       46        4       0
                text10                              80E      80E       FC        4       0
                text9                               E72      E72        C      6EE       0
                text8                               90A      90A       CC        4       0
                text7                               70C      70C      102        4       0
                text6                               A5E      A5E       84        4       0
                text5                               C12      C12       52        4       0
                text4                               E06      E06       26      6EE       0
                text3                                1A       1A      364        4       0
                text2                               E7E      E7E        A      6EE       0
                text1                               E52      E52       20      6EE       0
                text0                               37E      37E      246        4       0
                cstackCOMRAM                          1        1       31        1       1
                cstackBANK0                          9C       9C       35       60       1
                dataBANK0                            D1       D1       2D       60       1
                bssBANK0                             60       60       3C       60       1
                bssCOMRAM                            32       32       12        1       1
                cinit                               CAA      CAA       42        4       0
                idataBANK0                          DAE      DAE       2D        4       0

TOTAL           Name                               Link     Load   Length     Space
        CLASS   STACK          

        CLASS   CODE           
                end_init                             16       16        4         0
                intcode                               8        8        E         0
                reset_vec                             0        0        4         0
                text23                              9D6      9D6       88         0
                text22                              B5C      B5C       60         0
                intcode_body                        AE2      AE2       7A         0
                text20                              DDC      DDC       2A         0
                text19                              D6E      D6E       40         0
                text18                              E90      E90        8         0
                text17                              E2C      E2C       26         0
                text16                              D2E      D2E       40         0
                text15                              E88      E88        8         0
                text14                              5C4      5C4      148         0
                text13                              BBC      BBC       56         0
                text12                              CEC      CEC       42         0
                text11                              C64      C64       46         0
                text10                              80E      80E       FC         0
                text9                               E72      E72        C         0
                text8                               90A      90A       CC         0
                text7                               70C      70C      102         0
                text6                               A5E      A5E       84         0
                text5                               C12      C12       52         0
                text4                               E06      E06       26         0
                text3                                1A       1A      364         0
                text2                               E7E      E7E        A         0
                text1                               E52      E52       20         0
                text0                               37E      37E      246         0
                cinit                               CAA      CAA       42         0
                idataBANK0                          DAE      DAE       2D         0

        CLASS   CONST          

        CLASS   SMALLCONST     

        CLASS   MEDIUMCONST    

        CLASS   COMRAM         
                temp                                 44       44        1         1
                cstackCOMRAM                          1        1       31         1
                bssCOMRAM                            32       32       12         1

        CLASS   ABS1           

        CLASS   BIGRAM         

        CLASS   RAM            

        CLASS   BANK0          
                cstackBANK0                          9C       9C       35         1
                dataBANK0                            D1       D1       2D         1
                bssBANK0                             60       60       3C         1

        CLASS   BANK1          

        CLASS   BANK2          

        CLASS   BANK3          

        CLASS   BANK4          

        CLASS   BANK5          

        CLASS   BANK6          

        CLASS   BANK7          

        CLASS   SFR            

        CLASS   FARRAM         

        CLASS   CONFIG         
                config                           300000   300000        E         0

        CLASS   IDLOC          
                idloc                            200000   200000        8         0

        CLASS   EEDATA         



SEGMENTS        Name                           Load    Length   Top    Selector   Space  Class

                reset_vec                      000000  000004  000004         0       0  CODE    
                cstackCOMRAM                   000001  000044  000045         1       1  COMRAM  
                intcode                        000008  000DD3  000DDB         4       0  CODE    
                bssBANK0                       000060  00009E  0000FE        60       1  BANK0   
                text20                         000DDC  0000BC  000E98       6EE       0  CODE    
                idloc                          200000  000008  200008    200000       0  IDLOC   
                config                         300000  00000E  30000E    300000       0  CONFIG  


UNUSED ADDRESS RANGES

        Name                Unused          Largest block    Delta
        BANK0            0000FE-0000FF                2
        BANK1            000100-0001FF              100
        BANK2            000200-0002FF              100
        BANK3            000300-0003FF              100
        BANK4            000400-0004FF              100
        BANK5            000500-0005FF              100
        BANK6            000600-0006FF              100
        BANK7            000700-0007FF              100
        BIGRAM           000045-00005F               1B
                         0000FE-0007FF              702
        CODE             000004-000007                4
                         000DDB-000DDB                1
                         000E98-007FFF             7168
        COMRAM           000045-00005F               1B
        CONST            000004-000007                4
                         000DDB-000DDB                1
                         000E98-007FFF             7168
        EEDATA           F00000-F000FF              100
        MEDIUMCONST      000DDB-000DDB                1
                         000E98-007FFF             7168
        RAM              0000FE-0007FF              100
        SFR              000F60-000FFF               A0
        SMALLCONST       000DDB-000DDB                1
                         000E98-007FFF              100
        STACK            0000FE-0007FF              702

                                  Symbol Table

?___aldiv                           cstackCOMRAM 000013
?___awdiv                           cstackCOMRAM 000013
?___lwdiv                           cstackCOMRAM 000013
?___lwmod                           cstackCOMRAM 00001A
?___wmul                            cstackCOMRAM 000013
?_moving_avarege                    cstackCOMRAM 000021
?_return_distanceLine               cstackCOMRAM 000013
?_valor_AD                          cstackCOMRAM 000013
PWMtimer0_48MHzCLK_config@priority  cstackCOMRAM 000013
PWMtimer0_B@duty                    cstackCOMRAM 000004
PWMtimer0_B@time                    cstackCOMRAM 000002
PWMtimer0_B_pin@i                   cstackCOMRAM 00001A
PWMtimer0_B_pin@mask                cstackCOMRAM 00001B
PWMtimer0_B_pin@pino                cstackCOMRAM 000017
PWMtimer0_B_pin@port                cstackCOMRAM 000013
PWMtimer0_B_pin@tris                cstackCOMRAM 000015
PWMtimer0_B_pin@tris_p              cstackCOMRAM 000018
PWMtimer2_48MHzCLK_config@priority  cstackCOMRAM 000013
PWMtimer2_B@duty                    cstackCOMRAM 000002
PWMtimer2_B_pin@i                   cstackCOMRAM 00001A
PWMtimer2_B_pin@mask                cstackCOMRAM 00001B
PWMtimer2_B_pin@pino                cstackCOMRAM 000017
PWMtimer2_B_pin@port                cstackCOMRAM 000013
PWMtimer2_B_pin@tris                cstackCOMRAM 000015
PWMtimer2_B_pin@tris_p              cstackCOMRAM 000018
_ACQT0                              (abs)        007E03
_ACQT1                              (abs)        007E04
_ACQT2                              (abs)        007E05
_ADCON0                             (abs)        000FC2
_ADCON1                             (abs)        000FC1
_ADCS0                              (abs)        007E00
_ADCS1                              (abs)        007E01
_ADCS2                              (abs)        007E02
_ADFM                               (abs)        007E07
_ADON                               (abs)        007E10
_ADRESH                             (abs)        000FC4
_ADRESL                             (abs)        000FC3
_BAUDCON                            (abs)        000FB8
_BRG16                              (abs)        007DC3
_BRGH                               (abs)        007D62
_CREN                               (abs)        007D5C
_DONE                               (abs)        007E11
_DonPimpolhoBoard_init              text13       000BBC
_GIE                                (abs)        007F97
_GO                                 (abs)        007E11
_IPEN                               (abs)        007E87
_ISR                                intcode      000008
_MAX_sensorns                       bssBANK0     00007E
_MIN_sensorns                       dataBANK0    0000D1
_OERR                               (abs)        007D59
_PORTD                              (abs)        000F83
_PR2                                (abs)        000FCB
_PSA                                (abs)        007EAB
_PWMtimer0_48MHzCLK_config          text20       000DDC
_PWMtimer0_B                        text23       0009D6
_PWMtimer0_B_pin                    text19       000D6E
_PWMtimer0_on                       text18       000E90
_PWMtimer2_48MHzCLK_config          text17       000E2C
_PWMtimer2_B                        text22       000B5C
_PWMtimer2_B_pin                    text16       000D2E
_PWMtimer2_on                       text15       000E88
_RB0                                (abs)        007C08
_RC0                                (abs)        007C10
_RCREG                              (abs)        000FAE
_RCSTA                              (abs)        000FAB
_RD1                                (abs)        007C19
_RD3                                (abs)        007C1B
_RD5                                (abs)        007C1D
_SPBRG                              (abs)        000FAF
_SPBRGH                             (abs)        000FB0
_SREN                               (abs)        007D5D
_SYNC                               (abs)        007D64
_T0CON                              (abs)        000FD5
_T0CS                               (abs)        007EAD
_T0SE                               (abs)        007EAC
_T2CON                              (abs)        000FCA
_TMR0H                              (abs)        000FD7
_TMR0IE                             (abs)        007F95
_TMR0IF                             (abs)        007F92
_TMR0IP                             (abs)        007F8A
_TMR0L                              (abs)        000FD6
_TMR0ON                             (abs)        007EAF
_TMR2IE                             (abs)        007CE9
_TMR2IF                             (abs)        007CF1
_TMR2IP                             (abs)        007CF9
_TMR2ON                             (abs)        007E52
_TRISA                              (abs)        000F92
_TRISB                              (abs)        000F93
_TRISB0                             (abs)        007C98
_TRISC0                             (abs)        007CA0
_TRISC6                             (abs)        007CA6
_TRISC7                             (abs)        007CA7
_TRISD                              (abs)        000F95
_TRISD1                             (abs)        007CA9
_TRISD3                             (abs)        007CAB
_TRISD5                             (abs)        007CAD
_TRISE                              (abs)        000F96
_TXIF                               (abs)        007CF4
_TXREG                              (abs)        000FAD
_TXSTA                              (abs)        000FAC
__CFG_BOR$OFF                       (abs)        000000
__CFG_BORV$3                        (abs)        000000
__CFG_CCP2MX$OFF                    (abs)        000000
__CFG_CP0$OFF                       (abs)        000000
__CFG_CP1$OFF                       (abs)        000000
__CFG_CP2$OFF                       (abs)        000000
__CFG_CP3$OFF                       (abs)        000000
__CFG_CPB$OFF                       (abs)        000000
__CFG_CPD$OFF                       (abs)        000000
__CFG_EBTR0$OFF                     (abs)        000000
__CFG_EBTR1$OFF                     (abs)        000000
__CFG_EBTR2$OFF                     (abs)        000000
__CFG_EBTR3$OFF                     (abs)        000000
__CFG_EBTRB$OFF                     (abs)        000000
__CFG_FCMEN$OFF                     (abs)        000000
__CFG_FOSC$HS                       (abs)        000000
__CFG_ICPRT$OFF                     (abs)        000000
__CFG_IESO$OFF                      (abs)        000000
__CFG_LPT1OSC$OFF                   (abs)        000000
__CFG_LVP$OFF                       (abs)        000000
__CFG_MCLRE$OFF                     (abs)        000000
__CFG_PBADEN$OFF                    (abs)        000000
__CFG_PWRT$OFF                      (abs)        000000
__CFG_STVREN$OFF                    (abs)        000000
__CFG_VREGEN$OFF                    (abs)        000000
__CFG_WDT$OFF                       (abs)        000000
__CFG_WDTPS$32768                   (abs)        000000
__CFG_WRT0$OFF                      (abs)        000000
__CFG_WRT1$OFF                      (abs)        000000
__CFG_WRT2$OFF                      (abs)        000000
__CFG_WRT3$OFF                      (abs)        000000
__CFG_WRTB$OFF                      (abs)        000000
__CFG_WRTC$OFF                      (abs)        000000
__CFG_WRTD$OFF                      (abs)        000000
__CFG_XINST$OFF                     (abs)        000000
__HRAM                              (abs)        000000
__Habs1                             abs1         000000
__Hbank0                            bank0        000000
__Hbank1                            bank1        000000
__Hbank2                            bank2        000000
__Hbank3                            bank3        000000
__Hbank4                            bank4        000000
__Hbank5                            bank5        000000
__Hbank6                            bank6        000000
__Hbank7                            bank7        000000
__Hbigbss                           bigbss       000000
__Hbigdata                          bigdata      000000
__Hbigram                           bigram       000000
__Hbss                              bss          000000
__HbssBANK0                         bssBANK0     000000
__HbssCOMRAM                        bssCOMRAM    000000
__Hcinit                            cinit        000000
__Hclrtext                          clrtext      000000
__Hcomram                           comram       000000
__Hconfig                           config       30000E
__Hconst                            const        000000
__HcstackBANK0                      cstackBANK0  000000
__HcstackCOMRAM                     cstackCOMRAM 000000
__Hdata                             data         000000
__HdataBANK0                        dataBANK0    000000
__Heeprom_data                      eeprom_data  000000
__Hend_init                         end_init     00001A
__Hfarbss                           farbss       000000
__Hfardata                          fardata      000000
__Hibigdata                         ibigdata     000000
__Hidata                            idata        000000
__HidataBANK0                       idataBANK0   000000
__Hidloc                            idloc        200008
__Hifardata                         ifardata     000000
__Hinit                             init         000016
__Hintcode                          intcode      000016
__Hintcode_body                     intcode_body 000000
__Hintcodelo                        intcodelo    000016
__Hintentry                         intentry     000000
__Hintret                           intret       000000
__Hintsave_regs                     intsave_regs 000000
__Hirdata                           irdata       000000
__Hmediumconst                      mediumconst  000000
__HnvFARRAM                         nvFARRAM     000000
__Hnvbit                            nvbit        000000
__Hnvrram                           nvrram       000000
__Hparam                            rparam       000000
__Hpowerup                          powerup      000016
__Hram                              ram          000000
__Hramtop                           ramtop       000800
__Hrbit                             rbit         000000
__Hrbss                             rbss         000000
__Hrdata                            rdata        000000
__Hreset_vec                        reset_vec    000004
__Hrparam                           rparam       000000
__Hsfr                              sfr          000000
__Hsmallconst                       smallconst   000000
__Hspace_0                          (abs)        30000E
__Hspace_1                          (abs)        0000FE
__Hspace_2                          (abs)        000000
__Hstack                            stack        000000
__Hstruct                           struct       000000
__Htemp                             temp         000045
__Htext                             text         000000
__Htext0                            text0        000000
__Htext1                            text1        000000
__Htext10                           text10       000000
__Htext11                           text11       000000
__Htext12                           text12       000000
__Htext13                           text13       000000
__Htext14                           text14       000000
__Htext15                           text15       000000
__Htext16                           text16       000000
__Htext17                           text17       000000
__Htext18                           text18       000000
__Htext19                           text19       000000
__Htext2                            text2        000000
__Htext20                           text20       000000
__Htext22                           text22       000000
__Htext23                           text23       000000
__Htext3                            text3        000000
__Htext4                            text4        000000
__Htext5                            text5        000000
__Htext6                            text6        000000
__Htext7                            text7        000000
__Htext8                            text8        000000
__Htext9                            text9        000000
__LRAM                              (abs)        000001
__Labs1                             abs1         000000
__Lbank0                            bank0        000000
__Lbank1                            bank1        000000
__Lbank2                            bank2        000000
__Lbank3                            bank3        000000
__Lbank4                            bank4        000000
__Lbank5                            bank5        000000
__Lbank6                            bank6        000000
__Lbank7                            bank7        000000
__Lbigbss                           bigbss       000000
__Lbigdata                          bigdata      000000
__Lbigram                           bigram       000000
__Lbss                              bss          000000
__LbssBANK0                         bssBANK0     000000
__LbssCOMRAM                        bssCOMRAM    000000
__Lcinit                            cinit        000000
__Lclrtext                          clrtext      000000
__Lcomram                           comram       000000
__Lconfig                           config       300000
__Lconst                            const        000000
__LcstackBANK0                      cstackBANK0  000000
__LcstackCOMRAM                     cstackCOMRAM 000000
__Ldata                             data         000000
__LdataBANK0                        dataBANK0    000000
__Leeprom_data                      eeprom_data  000000
__Lend_init                         end_init     000016
__Lfarbss                           farbss       000000
__Lfardata                          fardata      000000
__Libigdata                         ibigdata     000000
__Lidata                            idata        000000
__LidataBANK0                       idataBANK0   000000
__Lidloc                            idloc        200000
__Lifardata                         ifardata     000000
__Linit                             init         000016
__Lintcode                          intcode      000008
__Lintcode_body                     intcode_body 000000
__Lintcodelo                        intcodelo    000016
__Lintentry                         intentry     000000
__Lintret                           intret       000000
__Lintsave_regs                     intsave_regs 000000
__Lirdata                           irdata       000000
__Lmediumconst                      mediumconst  000000
__LnvFARRAM                         nvFARRAM     000000
__Lnvbit                            nvbit        000000
__Lnvrram                           nvrram       000000
__Lparam                            rparam       000000
__Lpowerup                          powerup      000016
__Lram                              ram          000000
__Lramtop                           ramtop       000800
__Lrbit                             rbit         000000
__Lrbss                             rbss         000000
__Lrdata                            rdata        000000
__Lreset_vec                        reset_vec    000000
__Lrparam                           rparam       000000
__Lsfr                              sfr          000000
__Lsmallconst                       smallconst   000000
__Lspace_0                          (abs)        000000
__Lspace_1                          (abs)        000000
__Lspace_2                          (abs)        000000
__Lstack                            stack        000000
__Lstruct                           struct       000000
__Ltemp                             temp         000044
__Ltext                             text         000000
__Ltext0                            text0        000000
__Ltext1                            text1        000000
__Ltext10                           text10       000000
__Ltext11                           text11       000000
__Ltext12                           text12       000000
__Ltext13                           text13       000000
__Ltext14                           text14       000000
__Ltext15                           text15       000000
__Ltext16                           text16       000000
__Ltext17                           text17       000000
__Ltext18                           text18       000000
__Ltext19                           text19       000000
__Ltext2                            text2        000000
__Ltext20                           text20       000000
__Ltext22                           text22       000000
__Ltext23                           text23       000000
__Ltext3                            text3        000000
__Ltext4                            text4        000000
__Ltext5                            text5        000000
__Ltext6                            text6        000000
__Ltext7                            text7        000000
__Ltext8                            text8        000000
__Ltext9                            text9        000000
__S0                                (abs)        30000E
__S1                                (abs)        0000FE
__S2                                (abs)        000000
___aldiv                            text8        00090A
___aldiv@counter                    cstackCOMRAM 00001B
___aldiv@dividend                   cstackCOMRAM 000013
___aldiv@divisor                    cstackCOMRAM 000017
___aldiv@quotient                   cstackCOMRAM 00001D
___aldiv@sign                       cstackCOMRAM 00001C
___awdiv                            text6        000A5E
___awdiv@counter                    cstackCOMRAM 000017
___awdiv@dividend                   cstackCOMRAM 000013
___awdiv@divisor                    cstackCOMRAM 000015
___awdiv@quotient                   cstackCOMRAM 000019
___awdiv@sign                       cstackCOMRAM 000018
___inthi_sp                         stack        000000
___intlo_sp                         stack        000000
___lwdiv                            text5        000C12
___lwdiv@counter                    cstackCOMRAM 000017
___lwdiv@dividend                   cstackCOMRAM 000013
___lwdiv@divisor                    cstackCOMRAM 000015
___lwdiv@quotient                   cstackCOMRAM 000018
___lwmod                            text12       000CEC
___lwmod@counter                    cstackCOMRAM 00001E
___lwmod@dividend                   cstackCOMRAM 00001A
___lwmod@divisor                    cstackCOMRAM 00001C
___param_bank                       (abs)        000010
___rparam_used                      (abs)        000001
___sp                               stack        000000
___wmul                             text4        000E06
___wmul@multiplicand                cstackCOMRAM 000015
___wmul@multiplier                  cstackCOMRAM 000013
___wmul@product                     cstackCOMRAM 000017
__accesstop                         (abs)        000060
__activetblptr                      (abs)        000000
__end_of_DonPimpolhoBoard_init      text13       000C12
__end_of_ISR                        intcode_body 000B5C
__end_of_PWMtimer0_48MHzCLK_config  text20       000E06
__end_of_PWMtimer0_B                text23       000A5E
__end_of_PWMtimer0_B_pin            text19       000DAE
__end_of_PWMtimer0_on               text18       000E98
__end_of_PWMtimer2_48MHzCLK_config  text17       000E52
__end_of_PWMtimer2_B                text22       000BBC
__end_of_PWMtimer2_B_pin            text16       000D6E
__end_of_PWMtimer2_on               text15       000E90
__end_of___aldiv                    text8        0009D6
__end_of___awdiv                    text6        000AE2
__end_of___lwdiv                    text5        000C64
__end_of___lwmod                    text12       000D2E
__end_of___wmul                     text4        000E2C
__end_of__initialization            cinit        000CE2
__end_of_calibrates_sensors         text10       00090A
__end_of_conversorAD_config         text14       00070C
__end_of_enviaSerial                text9        000E7E
__end_of_main                       text0        0005C4
__end_of_moving_avarege             text7        00080E
__end_of_read_sensorns              text3        00037E
__end_of_return_distanceLine        text2        000E88
__end_of_serial_config              text1        000E72
__end_of_valor_AD                   text11       000CAA
__initialization                    cinit        000CAA
__mediumconst                       mediumconst  000000
__pbssBANK0                         bssBANK0     000060
__pbssCOMRAM                        bssCOMRAM    000032
__pcinit                            cinit        000CAA
__pcstackBANK0                      cstackBANK0  00009C
__pcstackCOMRAM                     cstackCOMRAM 000001
__pdataBANK0                        dataBANK0    0000D1
__pidataBANK0                       idataBANK0   000DAE
__pintcode                          intcode      000008
__pintcode_body                     intcode_body 000AE2
__ptext0                            text0        00037E
__ptext1                            text1        000E52
__ptext10                           text10       00080E
__ptext11                           text11       000C64
__ptext12                           text12       000CEC
__ptext13                           text13       000BBC
__ptext14                           text14       0005C4
__ptext15                           text15       000E88
__ptext16                           text16       000D2E
__ptext17                           text17       000E2C
__ptext18                           text18       000E90
__ptext19                           text19       000D6E
__ptext2                            text2        000E7E
__ptext20                           text20       000DDC
__ptext22                           text22       000B5C
__ptext23                           text23       0009D6
__ptext3                            text3        00001A
__ptext4                            text4        000E06
__ptext5                            text5        000C12
__ptext6                            text6        000A5E
__ptext7                            text7        00070C
__ptext8                            text8        00090A
__ptext9                            text9        000E72
__ramtop                            ramtop       000800
__size_of_DonPimpolhoBoard_init     (abs)        000000
__size_of_ISR                       (abs)        000000
__size_of_PWMtimer0_48MHzCLK_config (abs)        000000
__size_of_PWMtimer0_B               (abs)        000000
__size_of_PWMtimer0_B_pin           (abs)        000000
__size_of_PWMtimer0_on              (abs)        000000
__size_of_PWMtimer2_48MHzCLK_config (abs)        000000
__size_of_PWMtimer2_B               (abs)        000000
__size_of_PWMtimer2_B_pin           (abs)        000000
__size_of_PWMtimer2_on              (abs)        000000
__size_of___aldiv                   (abs)        000000
__size_of___awdiv                   (abs)        000000
__size_of___lwdiv                   (abs)        000000
__size_of___lwmod                   (abs)        000000
__size_of___wmul                    (abs)        000000
__size_of_calibrates_sensors        (abs)        000000
__size_of_conversorAD_config        (abs)        000000
__size_of_enviaSerial               (abs)        000000
__size_of_main                      (abs)        000000
__size_of_moving_avarege            (abs)        000000
__size_of_read_sensorns             (abs)        000000
__size_of_return_distanceLine       (abs)        000000
__size_of_serial_config             (abs)        000000
__size_of_valor_AD                  (abs)        000000
__smallconst                        smallconst   000000
_calibrates_sensors                 text10       00080E
_conversorAD_config                 text14       0005C4
_distance_line                      bssBANK0     00009A
_enviaSerial                        text9        000E72
_main                               text0        00037E
_main$824                           cstackBANK0  0000C9
_main$825                           cstackBANK0  0000CB
_mask_A                             bssCOMRAM    00003E
_mask_A2                            bssCOMRAM    00003F
_mask_B                             bssCOMRAM    000040
_mask_B2                            bssCOMRAM    000041
_moving_avarege                     text7        00070C
_portA_p                            bssCOMRAM    000032
_portA_p0                           bssCOMRAM    000034
_portB_p                            bssCOMRAM    000036
_portB_p0                           bssCOMRAM    000038
_pwm                                bssBANK0     000096
_read_sensorns                      text3        00001A
_return_distanceLine                text2        000E7E
_second_portion                     dataBANK0    0000E1
_sensor_bar                         bssBANK0     00008E
_serial_config                      text1        000E52
_true_duty0_A                       bssCOMRAM    00003A
_true_duty0_B                       bssCOMRAM    00003C
_true_duty_A                        bssCOMRAM    000042
_true_duty_B                        bssCOMRAM    000043
_valor_AD                           text11       000C64
_vals                               bssBANK0     000060
btemp                               temp         000044
calibrates_sensors@bar_sensorns     cstackCOMRAM 00001C
calibrates_sensors@i                cstackCOMRAM 00002C
conversorAD_config@F4451            dataBANK0    0000F1
conversorAD_config@chanel           cstackCOMRAM 000014
conversorAD_config@i                cstackBANK0  0000C4
conversorAD_config@neg              cstackCOMRAM 000013
conversorAD_config@port_an          cstackBANK0  0000AA
conversorAD_config@port_mask        cstackBANK0  00009C
conversorAD_config@pos              cstackBANK0  0000A9
end_of_initialization               cinit        000CE2
enviaSerial@c                       cstackCOMRAM 000013
int$flags                           temp         000044
int_func                            intcode_body 000AE2
intlevel0                           text         000000
intlevel1                           text         000000
intlevel2                           text         000000
intlevel3                           text         000000
main@filtered                       cstackBANK0  0000CD
main@j                              cstackBANK0  0000C5
main@valor                          cstackBANK0  0000CF
moving_avarege@i                    cstackCOMRAM 00002D
moving_avarege@new_lavue            cstackCOMRAM 000021
moving_avarege@sum                  cstackCOMRAM 000029
read_sensorns@color_line            cstackCOMRAM 000026
read_sensorns@i                     cstackCOMRAM 000031
read_sensorns@index_over_limit      cstackCOMRAM 00002C
read_sensorns@max_index             cstackCOMRAM 000030
read_sensorns@num_fired             cstackCOMRAM 00002D
read_sensorns@num_over_limit_line   cstackCOMRAM 000029
read_sensorns@third_portion         cstackCOMRAM 00002A
read_sensorns@threshold_value       cstackCOMRAM 00001B
read_sensorns@valueAD               cstackCOMRAM 00002E
read_sensorns@var_assist            cstackCOMRAM 000027
stackhi                             (abs)        0007FF
stacklo                             (abs)        0000FE
start                               init         000016
start_initialization                cinit        000CAA
valor_AD@ADvalor                    cstackCOMRAM 000016
valor_AD@chanel                     cstackCOMRAM 000015


FUNCTION INFORMATION:

 *************** function _main *****************
 Defined at:
		line 30 in file "main.c"
 Parameters:    Size  Location     Type
		None
 Auto vars:     Size  Location     Type
  j               4   41[BANK0 ] unsigned long 
  valor           2   51[BANK0 ] unsigned int 
  filtered        2   49[BANK0 ] unsigned int 
  i               1    0        unsigned char 
  valorL          1    0        unsigned char 
  valorH          1    0        unsigned char 
 Return value:  Size  Location     Type
		None               void
 Registers used:
		wreg, fsr1l, fsr1h, fsr2l, fsr2h, status,2, status,0, prodl, prodh, cstack
 Tracked objects:
		On entry : 
		On exit  : 
		Unchanged: 
 Data sizes:     COMRAM   BANK0   BANK1   BANK2   BANK3   BANK4   BANK5   BANK6   BANK7
      Params:         0       0       0       0       0       0       0       0       0
      Locals:         0      12       0       0       0       0       0       0       0
      Temps:          0       0       0       0       0       0       0       0       0
      Totals:         0      12       0       0       0       0       0       0       0
Total ram usage:       12 bytes
 Hardware stack levels required when called:    4
 This function calls:
		_DonPimpolhoBoard_init
		___lwdiv
		___lwmod
		_calibrates_sensors
		_enviaSerial
		_moving_avarege
		_read_sensorns
		_return_distanceLine
		_serial_config
 This function is called by:
		Startup code after reset
 This function uses a non-reentrant model


 *************** function _serial_config *****************
 Defined at:
		line 11 in file "serial.c"
 Parameters:    Size  Location     Type
		None
 Auto vars:     Size  Location     Type
		None
 Return value:  Size  Location     Type
		None               void
 Registers used:
		wreg, status,2
 Tracked objects:
		On entry : 
		On exit  : 
		Unchanged: 
 Data sizes:     COMRAM   BANK0   BANK1   BANK2   BANK3   BANK4   BANK5   BANK6   BANK7
      Params:         0       0       0       0       0       0       0       0       0
      Locals:         0       0       0       0       0       0       0       0       0
      Temps:          0       0       0       0       0       0       0       0       0
      Totals:         0       0       0       0       0       0       0       0       0
Total ram usage:        0 bytes
 Hardware stack levels used:    1
 Hardware stack levels required when called:    2
 This function calls:
		Nothing
 This function is called by:
		_main
 This function uses a non-reentrant model


 *************** function _return_distanceLine *****************
 Defined at:
		line 103 in file "ReflectanceSensors.c"
 Parameters:    Size  Location     Type
		None
 Auto vars:     Size  Location     Type
		None
 Return value:  Size  Location     Type
                  2   18[COMRAM] unsigned int 
 Registers used:
		None
 Tracked objects:
		On entry : 
		On exit  : 
		Unchanged: 
 Data sizes:     COMRAM   BANK0   BANK1   BANK2   BANK3   BANK4   BANK5   BANK6   BANK7
      Params:         2       0       0       0       0       0       0       0       0
      Locals:         0       0       0       0       0       0       0       0       0
      Temps:          0       0       0       0       0       0       0       0       0
      Totals:         2       0       0       0       0       0       0       0       0
Total ram usage:        2 bytes
 Hardware stack levels used:    1
 Hardware stack levels required when called:    2
 This function calls:
		Nothing
 This function is called by:
		_main
 This function uses a non-reentrant model


 *************** function _read_sensorns *****************
 Defined at:
		line 58 in file "ReflectanceSensors.c"
 Parameters:    Size  Location     Type
  color_line      1    wreg     enum E4440
  threshold_va    1   26[COMRAM] unsigned char 
 Auto vars:     Size  Location     Type
  color_line      1   37[COMRAM] enum E4440
  valueAD         2   45[COMRAM] unsigned int 
  third_portio    2   41[COMRAM] unsigned int 
  var_assist      2   38[COMRAM] unsigned int 
  i               1   48[COMRAM] unsigned char 
  max_index       1   47[COMRAM] unsigned char 
  num_fired       1   44[COMRAM] unsigned char 
  index_over_l    1   43[COMRAM] unsigned char 
  num_over_lim    1   40[COMRAM] unsigned char 
 Return value:  Size  Location     Type
		None               void
 Registers used:
		wreg, fsr1l, fsr1h, fsr2l, fsr2h, status,2, status,0, prodl, prodh, cstack
 Tracked objects:
		On entry : 
		On exit  : 
		Unchanged: 
 Data sizes:     COMRAM   BANK0   BANK1   BANK2   BANK3   BANK4   BANK5   BANK6   BANK7
      Params:         1       0       0       0       0       0       0       0       0
      Locals:        12       0       0       0       0       0       0       0       0
      Temps:         10       0       0       0       0       0       0       0       0
      Totals:        23       0       0       0       0       0       0       0       0
Total ram usage:       23 bytes
 Hardware stack levels used:    1
 Hardware stack levels required when called:    3
 This function calls:
		___awdiv
		___lwdiv
		___wmul
		_valor_AD
 This function is called by:
		_main
 This function uses a non-reentrant model


 *************** function ___wmul *****************
 Defined at:
		line 15 in file "C:\Program Files (x86)\Microchip\xc8\v1.35\sources\common\Umul16.c"
 Parameters:    Size  Location     Type
  multiplier      2   18[COMRAM] unsigned int 
  multiplicand    2   20[COMRAM] unsigned int 
 Auto vars:     Size  Location     Type
  product         2   22[COMRAM] unsigned int 
 Return value:  Size  Location     Type
                  2   18[COMRAM] unsigned int 
 Registers used:
		wreg, status,2, status,0, prodl, prodh
 Tracked objects:
		On entry : 
		On exit  : 
		Unchanged: 
 Data sizes:     COMRAM   BANK0   BANK1   BANK2   BANK3   BANK4   BANK5   BANK6   BANK7
      Params:         4       0       0       0       0       0       0       0       0
      Locals:         2       0       0       0       0       0       0       0       0
      Temps:          0       0       0       0       0       0       0       0       0
      Totals:         6       0       0       0       0       0       0       0       0
Total ram usage:        6 bytes
 Hardware stack levels used:    1
 Hardware stack levels required when called:    2
 This function calls:
		Nothing
 This function is called by:
		_read_sensorns
 This function uses a non-reentrant model


 *************** function ___lwdiv *****************
 Defined at:
		line 8 in file "C:\Program Files (x86)\Microchip\xc8\v1.35\sources\common\lwdiv.c"
 Parameters:    Size  Location     Type
  dividend        2   18[COMRAM] unsigned int 
  divisor         2   20[COMRAM] unsigned int 
 Auto vars:     Size  Location     Type
  quotient        2   23[COMRAM] unsigned int 
  counter         1   22[COMRAM] unsigned char 
 Return value:  Size  Location     Type
                  2   18[COMRAM] unsigned int 
 Registers used:
		wreg, status,2, status,0
 Tracked objects:
		On entry : 
		On exit  : 
		Unchanged: 
 Data sizes:     COMRAM   BANK0   BANK1   BANK2   BANK3   BANK4   BANK5   BANK6   BANK7
      Params:         4       0       0       0       0       0       0       0       0
      Locals:         3       0       0       0       0       0       0       0       0
      Temps:          0       0       0       0       0       0       0       0       0
      Totals:         7       0       0       0       0       0       0       0       0
Total ram usage:        7 bytes
 Hardware stack levels used:    1
 Hardware stack levels required when called:    2
 This function calls:
		Nothing
 This function is called by:
		_main
		_read_sensorns
 This function uses a non-reentrant model


 *************** function ___awdiv *****************
 Defined at:
		line 8 in file "C:\Program Files (x86)\Microchip\xc8\v1.35\sources\common\awdiv.c"
 Parameters:    Size  Location     Type
  dividend        2   18[COMRAM] int 
  divisor         2   20[COMRAM] int 
 Auto vars:     Size  Location     Type
  quotient        2   24[COMRAM] int 
  sign            1   23[COMRAM] unsigned char 
  counter         1   22[COMRAM] unsigned char 
 Return value:  Size  Location     Type
                  2   18[COMRAM] int 
 Registers used:
		wreg, status,2, status,0
 Tracked objects:
		On entry : 
		On exit  : 
		Unchanged: 
 Data sizes:     COMRAM   BANK0   BANK1   BANK2   BANK3   BANK4   BANK5   BANK6   BANK7
      Params:         4       0       0       0       0       0       0       0       0
      Locals:         4       0       0       0       0       0       0       0       0
      Temps:          0       0       0       0       0       0       0       0       0
      Totals:         8       0       0       0       0       0       0       0       0
Total ram usage:        8 bytes
 Hardware stack levels used:    1
 Hardware stack levels required when called:    2
 This function calls:
		Nothing
 This function is called by:
		_read_sensorns
 This function uses a non-reentrant model


 *************** function _moving_avarege *****************
 Defined at:
		line 7 in file "averageMoving.c"
 Parameters:    Size  Location     Type
  new_lavue       2   32[COMRAM] int 
 Auto vars:     Size  Location     Type
  sum             4   40[COMRAM] long 
  i               2   44[COMRAM] int 
 Return value:  Size  Location     Type
                  2   32[COMRAM] int 
 Registers used:
		wreg, fsr1l, fsr1h, fsr2l, fsr2h, status,2, status,0, cstack
 Tracked objects:
		On entry : 
		On exit  : 
		Unchanged: 
 Data sizes:     COMRAM   BANK0   BANK1   BANK2   BANK3   BANK4   BANK5   BANK6   BANK7
      Params:         2       0       0       0       0       0       0       0       0
      Locals:         6       0       0       0       0       0       0       0       0
      Temps:          6       0       0       0       0       0       0       0       0
      Totals:        14       0       0       0       0       0       0       0       0
Total ram usage:       14 bytes
 Hardware stack levels used:    1
 Hardware stack levels required when called:    3
 This function calls:
		___aldiv
 This function is called by:
		_main
 This function uses a non-reentrant model


 *************** function ___aldiv *****************
 Defined at:
		line 8 in file "C:\Program Files (x86)\Microchip\xc8\v1.35\sources\common\aldiv.c"
 Parameters:    Size  Location     Type
  dividend        4   18[COMRAM] long 
  divisor         4   22[COMRAM] long 
 Auto vars:     Size  Location     Type
  quotient        4   28[COMRAM] long 
  sign            1   27[COMRAM] unsigned char 
  counter         1   26[COMRAM] unsigned char 
 Return value:  Size  Location     Type
                  4   18[COMRAM] long 
 Registers used:
		wreg, status,2, status,0
 Tracked objects:
		On entry : 
		On exit  : 
		Unchanged: 
 Data sizes:     COMRAM   BANK0   BANK1   BANK2   BANK3   BANK4   BANK5   BANK6   BANK7
      Params:         8       0       0       0       0       0       0       0       0
      Locals:         6       0       0       0       0       0       0       0       0
      Temps:          0       0       0       0       0       0       0       0       0
      Totals:        14       0       0       0       0       0       0       0       0
Total ram usage:       14 bytes
 Hardware stack levels used:    1
 Hardware stack levels required when called:    2
 This function calls:
		Nothing
 This function is called by:
		_moving_avarege
 This function uses a non-reentrant model


 *************** function _enviaSerial *****************
 Defined at:
		line 26 in file "serial.c"
 Parameters:    Size  Location     Type
  c               1    wreg     unsigned char 
 Auto vars:     Size  Location     Type
  c               1   18[COMRAM] unsigned char 
 Return value:  Size  Location     Type
		None               void
 Registers used:
		wreg
 Tracked objects:
		On entry : 
		On exit  : 
		Unchanged: 
 Data sizes:     COMRAM   BANK0   BANK1   BANK2   BANK3   BANK4   BANK5   BANK6   BANK7
      Params:         0       0       0       0       0       0       0       0       0
      Locals:         1       0       0       0       0       0       0       0       0
      Temps:          0       0       0       0       0       0       0       0       0
      Totals:         1       0       0       0       0       0       0       0       0
Total ram usage:        1 bytes
 Hardware stack levels used:    1
 Hardware stack levels required when called:    2
 This function calls:
		Nothing
 This function is called by:
		_main
 This function uses a non-reentrant model


 *************** function _calibrates_sensors *****************
 Defined at:
		line 36 in file "ReflectanceSensors.c"
 Parameters:    Size  Location     Type
		None
 Auto vars:     Size  Location     Type
  bar_sensorns   16   27[COMRAM] unsigned int [8]
  i               2   43[COMRAM] unsigned int 
 Return value:  Size  Location     Type
		None               void
 Registers used:
		wreg, fsr1l, fsr1h, fsr2l, fsr2h, status,2, status,0, cstack
 Tracked objects:
		On entry : 
		On exit  : 
		Unchanged: 
 Data sizes:     COMRAM   BANK0   BANK1   BANK2   BANK3   BANK4   BANK5   BANK6   BANK7
      Params:         0       0       0       0       0       0       0       0       0
      Locals:        18       0       0       0       0       0       0       0       0
      Temps:          4       0       0       0       0       0       0       0       0
      Totals:        22       0       0       0       0       0       0       0       0
Total ram usage:       22 bytes
 Hardware stack levels used:    1
 Hardware stack levels required when called:    3
 This function calls:
		_valor_AD
 This function is called by:
		_main
 This function uses a non-reentrant model


 *************** function _valor_AD *****************
 Defined at:
		line 59 in file "conversorAD.c"
 Parameters:    Size  Location     Type
  chanel          1    wreg     unsigned char 
 Auto vars:     Size  Location     Type
  chanel          1   20[COMRAM] unsigned char 
  ADvalor         2   21[COMRAM] unsigned int 
 Return value:  Size  Location     Type
                  2   18[COMRAM] unsigned int 
 Registers used:
		wreg, status,2, status,0
 Tracked objects:
		On entry : 
		On exit  : 
		Unchanged: 
 Data sizes:     COMRAM   BANK0   BANK1   BANK2   BANK3   BANK4   BANK5   BANK6   BANK7
      Params:         2       0       0       0       0       0       0       0       0
      Locals:         3       0       0       0       0       0       0       0       0
      Temps:          0       0       0       0       0       0       0       0       0
      Totals:         5       0       0       0       0       0       0       0       0
Total ram usage:        5 bytes
 Hardware stack levels used:    1
 Hardware stack levels required when called:    2
 This function calls:
		Nothing
 This function is called by:
		_calibrates_sensors
		_read_sensorns
 This function uses a non-reentrant model


 *************** function ___lwmod *****************
 Defined at:
		line 8 in file "C:\Program Files (x86)\Microchip\xc8\v1.35\sources\common\lwmod.c"
 Parameters:    Size  Location     Type
  dividend        2   25[COMRAM] unsigned int 
  divisor         2   27[COMRAM] unsigned int 
 Auto vars:     Size  Location     Type
  counter         1   29[COMRAM] unsigned char 
 Return value:  Size  Location     Type
                  2   25[COMRAM] unsigned int 
 Registers used:
		wreg, status,2, status,0
 Tracked objects:
		On entry : 
		On exit  : 
		Unchanged: 
 Data sizes:     COMRAM   BANK0   BANK1   BANK2   BANK3   BANK4   BANK5   BANK6   BANK7
      Params:         4       0       0       0       0       0       0       0       0
      Locals:         1       0       0       0       0       0       0       0       0
      Temps:          0       0       0       0       0       0       0       0       0
      Totals:         5       0       0       0       0       0       0       0       0
Total ram usage:        5 bytes
 Hardware stack levels used:    1
 Hardware stack levels required when called:    2
 This function calls:
		Nothing
 This function is called by:
		_main
 This function uses a non-reentrant model


 *************** function _DonPimpolhoBoard_init *****************
 Defined at:
		line 73 in file "DonPimpolhoBoard.c"
 Parameters:    Size  Location     Type
		None
 Auto vars:     Size  Location     Type
		None
 Return value:  Size  Location     Type
		None               void
 Registers used:
		wreg, fsr1l, fsr1h, fsr2l, fsr2h, status,2, status,0, prodl, prodh, cstack
 Tracked objects:
		On entry : 
		On exit  : 
		Unchanged: 
 Data sizes:     COMRAM   BANK0   BANK1   BANK2   BANK3   BANK4   BANK5   BANK6   BANK7
      Params:         0       0       0       0       0       0       0       0       0
      Locals:         0       0       0       0       0       0       0       0       0
      Temps:          0       0       0       0       0       0       0       0       0
      Totals:         0       0       0       0       0       0       0       0       0
Total ram usage:        0 bytes
 Hardware stack levels used:    1
 Hardware stack levels required when called:    3
 This function calls:
		_PWMtimer0_48MHzCLK_config
		_PWMtimer0_B_pin
		_PWMtimer0_on
		_PWMtimer2_48MHzCLK_config
		_PWMtimer2_B_pin
		_PWMtimer2_on
		_conversorAD_config
 This function is called by:
		_main
 This function uses a non-reentrant model


 *************** function _conversorAD_config *****************
 Defined at:
		line 13 in file "conversorAD.c"
 Parameters:    Size  Location     Type
  pos             1    wreg     unsigned char 
  neg             1   18[COMRAM] unsigned char 
  chanel          1   19[COMRAM] unsigned char 
 Auto vars:     Size  Location     Type
  pos             1   13[BANK0 ] unsigned char 
  port_an        26   14[BANK0 ] PTR unsigned char [13]
		 -> TRISB(1), TRISE(1), TRISA(1), 
  port_mask      13    0[BANK0 ] unsigned char [13]
  i               1   40[BANK0 ] unsigned char 
 Return value:  Size  Location     Type
		None               void
 Registers used:
		wreg, fsr1l, fsr1h, fsr2l, fsr2h, status,2, status,0, prodl, prodh
 Tracked objects:
		On entry : 
		On exit  : 
		Unchanged: 
 Data sizes:     COMRAM   BANK0   BANK1   BANK2   BANK3   BANK4   BANK5   BANK6   BANK7
      Params:         2       0       0       0       0       0       0       0       0
      Locals:         0      41       0       0       0       0       0       0       0
      Temps:          3       0       0       0       0       0       0       0       0
      Totals:         5      41       0       0       0       0       0       0       0
Total ram usage:       46 bytes
 Hardware stack levels used:    1
 Hardware stack levels required when called:    2
 This function calls:
		Nothing
 This function is called by:
		_DonPimpolhoBoard_init
 This function uses a non-reentrant model


 *************** function _PWMtimer2_on *****************
 Defined at:
		line 44 in file "PMW_timer2.c"
 Parameters:    Size  Location     Type
		None
 Auto vars:     Size  Location     Type
		None
 Return value:  Size  Location     Type
		None               void
 Registers used:
		None
 Tracked objects:
		On entry : 
		On exit  : 
		Unchanged: 
 Data sizes:     COMRAM   BANK0   BANK1   BANK2   BANK3   BANK4   BANK5   BANK6   BANK7
      Params:         0       0       0       0       0       0       0       0       0
      Locals:         0       0       0       0       0       0       0       0       0
      Temps:          0       0       0       0       0       0       0       0       0
      Totals:         0       0       0       0       0       0       0       0       0
Total ram usage:        0 bytes
 Hardware stack levels used:    1
 Hardware stack levels required when called:    2
 This function calls:
		Nothing
 This function is called by:
		_DonPimpolhoBoard_init
 This function uses a non-reentrant model


 *************** function _PWMtimer2_B_pin *****************
 Defined at:
		line 100 in file "PMW_timer2.c"
 Parameters:    Size  Location     Type
  port            2   18[COMRAM] PTR unsigned char 
		 -> PORTD(1), 
  tris            2   20[COMRAM] PTR unsigned char 
		 -> TRISD(1), 
  pino            1   22[COMRAM] unsigned char 
 Auto vars:     Size  Location     Type
  tris_p          2   23[COMRAM] PTR unsigned char 
		 -> TRISD(1), 
  mask            1   26[COMRAM] unsigned char 
  i               1   25[COMRAM] unsigned char 
 Return value:  Size  Location     Type
		None               void
 Registers used:
		wreg, fsr2l, fsr2h, status,2, status,0, prodl, prodh
 Tracked objects:
		On entry : 
		On exit  : 
		Unchanged: 
 Data sizes:     COMRAM   BANK0   BANK1   BANK2   BANK3   BANK4   BANK5   BANK6   BANK7
      Params:         5       0       0       0       0       0       0       0       0
      Locals:         4       0       0       0       0       0       0       0       0
      Temps:          0       0       0       0       0       0       0       0       0
      Totals:         9       0       0       0       0       0       0       0       0
Total ram usage:        9 bytes
 Hardware stack levels used:    1
 Hardware stack levels required when called:    2
 This function calls:
		Nothing
 This function is called by:
		_DonPimpolhoBoard_init
 This function uses a non-reentrant model


 *************** function _PWMtimer2_48MHzCLK_config *****************
 Defined at:
		line 29 in file "PMW_timer2.c"
 Parameters:    Size  Location     Type
  priority        1    wreg     unsigned char 
 Auto vars:     Size  Location     Type
  priority        1   18[COMRAM] unsigned char 
 Return value:  Size  Location     Type
		None               void
 Registers used:
		wreg, status,2, status,0
 Tracked objects:
		On entry : 
		On exit  : 
		Unchanged: 
 Data sizes:     COMRAM   BANK0   BANK1   BANK2   BANK3   BANK4   BANK5   BANK6   BANK7
      Params:         0       0       0       0       0       0       0       0       0
      Locals:         1       0       0       0       0       0       0       0       0
      Temps:          0       0       0       0       0       0       0       0       0
      Totals:         1       0       0       0       0       0       0       0       0
Total ram usage:        1 bytes
 Hardware stack levels used:    1
 Hardware stack levels required when called:    2
 This function calls:
		Nothing
 This function is called by:
		_DonPimpolhoBoard_init
 This function uses a non-reentrant model


 *************** function _PWMtimer0_on *****************
 Defined at:
		line 41 in file "PWM_timer0.c"
 Parameters:    Size  Location     Type
		None
 Auto vars:     Size  Location     Type
		None
 Return value:  Size  Location     Type
		None               void
 Registers used:
		None
 Tracked objects:
		On entry : 
		On exit  : 
		Unchanged: 
 Data sizes:     COMRAM   BANK0   BANK1   BANK2   BANK3   BANK4   BANK5   BANK6   BANK7
      Params:         0       0       0       0       0       0       0       0       0
      Locals:         0       0       0       0       0       0       0       0       0
      Temps:          0       0       0       0       0       0       0       0       0
      Totals:         0       0       0       0       0       0       0       0       0
Total ram usage:        0 bytes
 Hardware stack levels used:    1
 Hardware stack levels required when called:    2
 This function calls:
		Nothing
 This function is called by:
		_DonPimpolhoBoard_init
 This function uses a non-reentrant model


 *************** function _PWMtimer0_B_pin *****************
 Defined at:
		line 108 in file "PWM_timer0.c"
 Parameters:    Size  Location     Type
  port            2   18[COMRAM] PTR unsigned char 
		 -> PORTD(1), 
  tris            2   20[COMRAM] PTR unsigned char 
		 -> TRISD(1), 
  pino            1   22[COMRAM] unsigned char 
 Auto vars:     Size  Location     Type
  tris_p          2   23[COMRAM] PTR unsigned char 
		 -> TRISD(1), 
  mask            1   26[COMRAM] unsigned char 
  i               1   25[COMRAM] unsigned char 
 Return value:  Size  Location     Type
		None               void
 Registers used:
		wreg, fsr2l, fsr2h, status,2, status,0, prodl, prodh
 Tracked objects:
		On entry : 
		On exit  : 
		Unchanged: 
 Data sizes:     COMRAM   BANK0   BANK1   BANK2   BANK3   BANK4   BANK5   BANK6   BANK7
      Params:         5       0       0       0       0       0       0       0       0
      Locals:         4       0       0       0       0       0       0       0       0
      Temps:          0       0       0       0       0       0       0       0       0
      Totals:         9       0       0       0       0       0       0       0       0
Total ram usage:        9 bytes
 Hardware stack levels used:    1
 Hardware stack levels required when called:    2
 This function calls:
		Nothing
 This function is called by:
		_DonPimpolhoBoard_init
 This function uses a non-reentrant model


 *************** function _PWMtimer0_48MHzCLK_config *****************
 Defined at:
		line 22 in file "PWM_timer0.c"
 Parameters:    Size  Location     Type
  priority        1    wreg     unsigned char 
 Auto vars:     Size  Location     Type
  priority        1   18[COMRAM] unsigned char 
 Return value:  Size  Location     Type
		None               void
 Registers used:
		wreg, status,2, status,0
 Tracked objects:
		On entry : 
		On exit  : 
		Unchanged: 
 Data sizes:     COMRAM   BANK0   BANK1   BANK2   BANK3   BANK4   BANK5   BANK6   BANK7
      Params:         0       0       0       0       0       0       0       0       0
      Locals:         1       0       0       0       0       0       0       0       0
      Temps:          0       0       0       0       0       0       0       0       0
      Totals:         1       0       0       0       0       0       0       0       0
Total ram usage:        1 bytes
 Hardware stack levels used:    1
 Hardware stack levels required when called:    2
 This function calls:
		Nothing
 This function is called by:
		_DonPimpolhoBoard_init
 This function uses a non-reentrant model


 *************** function _ISR *****************
 Defined at:
		line 22 in file "main.c"
 Parameters:    Size  Location     Type
		None
 Auto vars:     Size  Location     Type
		None
 Return value:  Size  Location     Type
		None               void
 Registers used:
		wreg, fsr2l, fsr2h, status,2, status,0, prodl, prodh, cstack
 Tracked objects:
		On entry : 
		On exit  : 
		Unchanged: 
 Data sizes:     COMRAM   BANK0   BANK1   BANK2   BANK3   BANK4   BANK5   BANK6   BANK7
      Params:         0       0       0       0       0       0       0       0       0
      Locals:         0       0       0       0       0       0       0       0       0
      Temps:         14       0       0       0       0       0       0       0       0
      Totals:        14       0       0       0       0       0       0       0       0
Total ram usage:       14 bytes
 Hardware stack levels used:    1
 Hardware stack levels required when called:    1
 This function calls:
		_PWMtimer0_B
		_PWMtimer2_B
 This function is called by:
		Interrupt level 2
 This function uses a non-reentrant model


 *************** function _PWMtimer2_B *****************
 Defined at:
		line 120 in file "PMW_timer2.c"
 Parameters:    Size  Location     Type
  duty            1    wreg     unsigned char 
 Auto vars:     Size  Location     Type
  duty            1    1[COMRAM] unsigned char 
 Return value:  Size  Location     Type
		None               void
 Registers used:
		wreg, fsr2l, fsr2h, status,2, status,0
 Tracked objects:
		On entry : 
		On exit  : 
		Unchanged: 
 Data sizes:     COMRAM   BANK0   BANK1   BANK2   BANK3   BANK4   BANK5   BANK6   BANK7
      Params:         0       0       0       0       0       0       0       0       0
      Locals:         1       0       0       0       0       0       0       0       0
      Temps:          1       0       0       0       0       0       0       0       0
      Totals:         2       0       0       0       0       0       0       0       0
Total ram usage:        2 bytes
 Hardware stack levels used:    1
 This function calls:
		Nothing
 This function is called by:
		_ISR
 This function uses a non-reentrant model


 *************** function _PWMtimer0_B *****************
 Defined at:
		line 128 in file "PWM_timer0.c"
 Parameters:    Size  Location     Type
  duty            1    wreg     unsigned char 
 Auto vars:     Size  Location     Type
  duty            1    3[COMRAM] unsigned char 
  time            2    1[COMRAM] unsigned int 
 Return value:  Size  Location     Type
		None               void
 Registers used:
		wreg, fsr2l, fsr2h, status,2, status,0, prodl, prodh
 Tracked objects:
		On entry : 
		On exit  : 
		Unchanged: 
 Data sizes:     COMRAM   BANK0   BANK1   BANK2   BANK3   BANK4   BANK5   BANK6   BANK7
      Params:         0       0       0       0       0       0       0       0       0
      Locals:         3       0       0       0       0       0       0       0       0
      Temps:          1       0       0       0       0       0       0       0       0
      Totals:         4       0       0       0       0       0       0       0       0
Total ram usage:        4 bytes
 Hardware stack levels used:    1
 This function calls:
		Nothing
 This function is called by:
		_ISR
 This function uses a non-reentrant model



MODULE INFORMATION

Module		Function		Class		Link	Load	Size
serial.c
		_enviaSerial   		CODE           	0E72	0000	13
		_serial_config 		CODE           	0E52	0000	33

serial.c estimated size: 46

PWM_timer0.c
		_PWMtimer0_48MHzCLK_config		CODE           	0DDC	0000	43
		_PWMtimer0_B   		CODE           	09D6	0000	137
		_PWMtimer0_on  		CODE           	0E90	0000	9
		_PWMtimer0_B_pin		CODE           	0D6E	0000	65

PWM_timer0.c estimated size: 254

ReflectanceSensors.c
		_return_distanceLine		CODE           	0E7E	0000	11
		_calibrates_sensors		CODE           	080E	0000	253
		_read_sensorns 		CODE           	001A	0000	869

ReflectanceSensors.c estimated size: 1133

C:\Program Files (x86)\Microchip\xc8\v1.35\sources\common\awdiv.c
		___awdiv       		CODE           	0A5E	0000	133

C:\Program Files (x86)\Microchip\xc8\v1.35\sources\common\awdiv.c estimated size: 133

averageMoving.c
		_moving_avarege		CODE           	070C	0000	259

averageMoving.c estimated size: 259

conversorAD.c
		_conversorAD_config		CODE           	05C4	0000	329
		_valor_AD      		CODE           	0C64	0000	71

conversorAD.c estimated size: 400

C:\Program Files (x86)\Microchip\xc8\v1.35\sources\common\aldiv.c
		___aldiv       		CODE           	090A	0000	205

C:\Program Files (x86)\Microchip\xc8\v1.35\sources\common\aldiv.c estimated size: 205

PMW_timer2.c
		_PWMtimer2_48MHzCLK_config		CODE           	0E2C	0000	39
		_PWMtimer2_B   		CODE           	0B5C	0000	97
		_PWMtimer2_on  		CODE           	0E88	0000	9
		_PWMtimer2_B_pin		CODE           	0D2E	0000	65

PMW_timer2.c estimated size: 210

C:\Program Files (x86)\Microchip\xc8\v1.35\sources\common\lwmod.c
		___lwmod       		CODE           	0CEC	0000	67

C:\Program Files (x86)\Microchip\xc8\v1.35\sources\common\lwmod.c estimated size: 67

shared
		__initialization		CODE           	0CAA	0000	57

shared estimated size: 57

C:\Program Files (x86)\Microchip\xc8\v1.35\sources\common\lwdiv.c
		___lwdiv       		CODE           	0C12	0000	83

C:\Program Files (x86)\Microchip\xc8\v1.35\sources\common\lwdiv.c estimated size: 83

C:\Program Files (x86)\Microchip\xc8\v1.35\sources\common\Umul16.c
		___wmul        		CODE           	0E06	0000	39

C:\Program Files (x86)\Microchip\xc8\v1.35\sources\common\Umul16.c estimated size: 39

main.c
		_ISR           		CODE           	0008	0000	137
		_main          		CODE           	037E	0000	583

main.c estimated size: 720

DonPimpolhoBoard.c
		_DonPimpolhoBoard_init		CODE           	0BBC	0000	87

DonPimpolhoBoard.c estimated size: 87

